target datalayout = "e-m:e-p270:32:32-p271:32:32-p272:64:64-i64:64-i128:128-f80:128-n8:16:32:64-S128"
target triple = "x86_64-pc-linux-gnu"

%struct.epan_uat = type { ptr, i64, ptr, i8, ptr, i32, ptr, ptr, ptr, ptr, ptr, ptr, ptr, ptr, ptr, i32, ptr, ptr, ptr, i8, ptr, ptr, i8 }
%struct._GArray = type { ptr, i32 }

; Function Attrs: null_pointer_is_valid sspstrong uwtable
define void @uat_clear(ptr noundef %0) #0 {
  %2 = alloca ptr, align 8
  %3 = alloca i32, align 4
  store ptr %0, ptr %2, align 8
  call void @llvm.lifetime.start.p0(i64 4, ptr %3) #13
  store i32 0, ptr %3, align 4
  br label %4

4:                                                ; preds = %34, %1
  %5 = load i32, ptr %3, align 4
  %6 = load ptr, ptr %2, align 8
  %7 = getelementptr inbounds nuw %struct.epan_uat, ptr %6, i32 0, i32 16
  %8 = load ptr, ptr %7, align 8
  %9 = getelementptr inbounds nuw %struct._GArray, ptr %8, i32 0, i32 1
  %10 = load i32, ptr %9, align 8
  %11 = icmp ult i32 %5, %10
  br i1 %11, label %12, label %37

12:                                               ; preds = %4
  %13 = load ptr, ptr %2, align 8
  %14 = getelementptr inbounds nuw %struct.epan_uat, ptr %13, i32 0, i32 10
  %15 = load ptr, ptr %14, align 8
  %16 = icmp ne ptr %15, null
  br i1 %16, label %17, label %33

17:                                               ; preds = %12
  %18 = load ptr, ptr %2, align 8
  %19 = getelementptr inbounds nuw %struct.epan_uat, ptr %18, i32 0, i32 10
  %20 = load ptr, ptr %19, align 8
  %21 = load ptr, ptr %2, align 8
  %22 = getelementptr inbounds nuw %struct.epan_uat, ptr %21, i32 0, i32 16
  %23 = load ptr, ptr %22, align 8
  %24 = getelementptr inbounds nuw %struct._GArray, ptr %23, i32 0, i32 0
  %25 = load ptr, ptr %24, align 8
  %26 = load ptr, ptr %2, align 8
  %27 = getelementptr inbounds nuw %struct.epan_uat, ptr %26, i32 0, i32 1
  %28 = load i64, ptr %27, align 8
  %29 = load i32, ptr %3, align 4
  %30 = zext i32 %29 to i64
  %31 = mul i64 %28, %30
  %32 = getelementptr i8, ptr %25, i64 %31
  call void %20(ptr noundef %32)
  br label %33

33:                                               ; preds = %17, %12
  br label %34

34:                                               ; preds = %33
  %35 = load i32, ptr %3, align 4
  %36 = add i32 %35, 1
  store i32 %36, ptr %3, align 4
  br label %4, !llvm.loop !24

37:                                               ; preds = %4
  store i32 0, ptr %3, align 4
  br label %38

38:                                               ; preds = %68, %37
  %39 = load i32, ptr %3, align 4
  %40 = load ptr, ptr %2, align 8
  %41 = getelementptr inbounds nuw %struct.epan_uat, ptr %40, i32 0, i32 17
  %42 = load ptr, ptr %41, align 8
  %43 = getelementptr inbounds nuw %struct._GArray, ptr %42, i32 0, i32 1
  %44 = load i32, ptr %43, align 8
  %45 = icmp ult i32 %39, %44
  br i1 %45, label %46, label %71

46:                                               ; preds = %38
  %47 = load ptr, ptr %2, align 8
  %48 = getelementptr inbounds nuw %struct.epan_uat, ptr %47, i32 0, i32 10
  %49 = load ptr, ptr %48, align 8
  %50 = icmp ne ptr %49, null
  br i1 %50, label %51, label %67

51:                                               ; preds = %46
  %52 = load ptr, ptr %2, align 8
  %53 = getelementptr inbounds nuw %struct.epan_uat, ptr %52, i32 0, i32 10
  %54 = load ptr, ptr %53, align 8
  %55 = load ptr, ptr %2, align 8
  %56 = getelementptr inbounds nuw %struct.epan_uat, ptr %55, i32 0, i32 17
  %57 = load ptr, ptr %56, align 8
  %58 = getelementptr inbounds nuw %struct._GArray, ptr %57, i32 0, i32 0
  %59 = load ptr, ptr %58, align 8
  %60 = load ptr, ptr %2, align 8
  %61 = getelementptr inbounds nuw %struct.epan_uat, ptr %60, i32 0, i32 1
  %62 = load i64, ptr %61, align 8
  %63 = load i32, ptr %3, align 4
  %64 = zext i32 %63 to i64
  %65 = mul i64 %62, %64
  %66 = getelementptr i8, ptr %59, i64 %65
  call void %54(ptr noundef %66)
  br label %67

67:                                               ; preds = %51, %46
  br label %68

68:                                               ; preds = %67
  %69 = load i32, ptr %3, align 4
  %70 = add i32 %69, 1
  store i32 %70, ptr %3, align 4
  br label %38, !llvm.loop !25

71:                                               ; preds = %38
  %72 = load ptr, ptr %2, align 8
  %73 = getelementptr inbounds nuw %struct.epan_uat, ptr %72, i32 0, i32 17
  %74 = load ptr, ptr %73, align 8
  %75 = call ptr @g_array_set_size(ptr noundef %74, i32 noundef 0)
  %76 = load ptr, ptr %2, align 8
  %77 = getelementptr inbounds nuw %struct.epan_uat, ptr %76, i32 0, i32 16
  %78 = load ptr, ptr %77, align 8
  %79 = call ptr @g_array_set_size(ptr noundef %78, i32 noundef 0)
  %80 = load ptr, ptr %2, align 8
  %81 = getelementptr inbounds nuw %struct.epan_uat, ptr %80, i32 0, i32 18
  %82 = load ptr, ptr %81, align 8
  %83 = call ptr @g_array_set_size(ptr noundef %82, i32 noundef 0)
  %84 = load ptr, ptr %2, align 8
  %85 = getelementptr inbounds nuw %struct.epan_uat, ptr %84, i32 0, i32 6
  %86 = load ptr, ptr %85, align 8
  store ptr null, ptr %86, align 8
  %87 = load ptr, ptr %2, align 8
  %88 = getelementptr inbounds nuw %struct.epan_uat, ptr %87, i32 0, i32 7
  %89 = load ptr, ptr %88, align 8
  store i32 0, ptr %89, align 4
  %90 = load ptr, ptr %2, align 8
  %91 = getelementptr inbounds nuw %struct.epan_uat, ptr %90, i32 0, i32 12
  %92 = load ptr, ptr %91, align 8
  %93 = icmp ne ptr %92, null
  br i1 %93, label %94, label %98

94:                                               ; preds = %71
  %95 = load ptr, ptr %2, align 8
  %96 = getelementptr inbounds nuw %struct.epan_uat, ptr %95, i32 0, i32 12
  %97 = load ptr, ptr %96, align 8
  call void %97()
  br label %98

98:                                               ; preds = %94, %71
  call void @llvm.lifetime.end.p0(i64 4, ptr %3) #13
  ret void
}