; Function Attrs: null_pointer_is_valid sspstrong uwtable
define void @uat_clear(ptr noundef readonly captures(none) %0) local_unnamed_addr #0 {
  %2 = getelementptr inbounds nuw i8, ptr %0, i64 128
  %3 = load ptr, ptr %2, align 8
  %4 = getelementptr inbounds nuw i8, ptr %3, i64 8
  %5 = load i32, ptr %4, align 8
  %.not31 = icmp eq i32 %5, 0
  br i1 %.not31, label %.preheader, label %.lr.ph

.lr.ph:                                           ; preds = %1
  %6 = getelementptr inbounds nuw i8, ptr %0, i64 80
  %7 = getelementptr inbounds nuw i8, ptr %0, i64 8
  %8 = load ptr, ptr %6, align 8
  %9 = icmp eq ptr %8, null
  br i1 %9, label %.preheader, label %.lr.ph.split

.preheader:                                       ; preds = %25, %.lr.ph, %1
  %10 = getelementptr inbounds nuw i8, ptr %0, i64 136
  %11 = load ptr, ptr %10, align 8
  %12 = getelementptr inbounds nuw i8, ptr %11, i64 8
  %13 = load i32, ptr %12, align 8
  %.not32 = icmp eq i32 %13, 0
  br i1 %.not32, label %._crit_edge, label %.lr.ph30

.lr.ph30:                                         ; preds = %.preheader
  %14 = getelementptr inbounds nuw i8, ptr %0, i64 80
  %15 = getelementptr inbounds nuw i8, ptr %0, i64 8
  %16 = load ptr, ptr %14, align 8
  %17 = icmp eq ptr %16, null
  br i1 %17, label %._crit_edge, label %.lr.ph30.split

.lr.ph.splitthread-pre-split:                     ; preds = %25
  %.pr = load ptr, ptr %6, align 8
  br label %.lr.ph.split

.lr.ph.split:                                     ; preds = %.lr.ph, %.lr.ph.splitthread-pre-split
  %18 = phi ptr [ %.pr, %.lr.ph.splitthread-pre-split ], [ %8, %.lr.ph ]
  %19 = phi ptr [ %26, %.lr.ph.splitthread-pre-split ], [ %3, %.lr.ph ]
  %indvars.iv = phi i64 [ %indvars.iv.next, %.lr.ph.splitthread-pre-split ], [ 0, %.lr.ph ]
  %.not26 = icmp eq ptr %18, null
  br i1 %.not26, label %25, label %20

20:                                               ; preds = %.lr.ph.split
  %21 = load ptr, ptr %19, align 8
  %22 = load i64, ptr %7, align 8
  %23 = mul i64 %22, %indvars.iv
  %24 = getelementptr i8, ptr %21, i64 %23
  tail call void %18(ptr noundef %24)
  %.pre = load ptr, ptr %2, align 8
  br label %25

25:                                               ; preds = %.lr.ph.split, %20
  %26 = phi ptr [ %19, %.lr.ph.split ], [ %.pre, %20 ]
  %indvars.iv.next = add nuw nsw i64 %indvars.iv, 1
  %27 = getelementptr inbounds nuw i8, ptr %26, i64 8
  %28 = load i32, ptr %27, align 8
  %29 = zext i32 %28 to i64
  %30 = icmp samesign ult i64 %indvars.iv.next, %29
  br i1 %30, label %.lr.ph.splitthread-pre-split, label %.preheader, !llvm.loop !25

.lr.ph30.splitthread-pre-split:                   ; preds = %38
  %.pr41 = load ptr, ptr %14, align 8
  br label %.lr.ph30.split

.lr.ph30.split:                                   ; preds = %.lr.ph30, %.lr.ph30.splitthread-pre-split
  %31 = phi ptr [ %.pr41, %.lr.ph30.splitthread-pre-split ], [ %16, %.lr.ph30 ]
  %32 = phi ptr [ %39, %.lr.ph30.splitthread-pre-split ], [ %11, %.lr.ph30 ]
  %indvars.iv37 = phi i64 [ %indvars.iv.next38, %.lr.ph30.splitthread-pre-split ], [ 0, %.lr.ph30 ]
  %.not25 = icmp eq ptr %31, null
  br i1 %.not25, label %38, label %33

33:                                               ; preds = %.lr.ph30.split
  %34 = load ptr, ptr %32, align 8
  %35 = load i64, ptr %15, align 8
  %36 = mul i64 %35, %indvars.iv37
  %37 = getelementptr i8, ptr %34, i64 %36
  tail call void %31(ptr noundef %37)
  %.pre40 = load ptr, ptr %10, align 8
  br label %38

38:                                               ; preds = %.lr.ph30.split, %33
  %39 = phi ptr [ %32, %.lr.ph30.split ], [ %.pre40, %33 ]
  %indvars.iv.next38 = add nuw nsw i64 %indvars.iv37, 1
  %40 = getelementptr inbounds nuw i8, ptr %39, i64 8
  %41 = load i32, ptr %40, align 8
  %42 = zext i32 %41 to i64
  %43 = icmp samesign ult i64 %indvars.iv.next38, %42
  br i1 %43, label %.lr.ph30.splitthread-pre-split, label %._crit_edge, !llvm.loop !26

._crit_edge:                                      ; preds = %38, %.lr.ph30, %.preheader
  %.lcssa = phi ptr [ %11, %.preheader ], [ %11, %.lr.ph30 ], [ %39, %38 ]
  %44 = tail call ptr @g_array_set_size(ptr noundef %.lcssa, i32 noundef 0)
  %45 = load ptr, ptr %2, align 8
  %46 = tail call ptr @g_array_set_size(ptr noundef %45, i32 noundef 0)
  %47 = getelementptr inbounds nuw i8, ptr %0, i64 144
  %48 = load ptr, ptr %47, align 8
  %49 = tail call ptr @g_array_set_size(ptr noundef %48, i32 noundef 0)
  %50 = getelementptr inbounds nuw i8, ptr %0, i64 48
  %51 = load ptr, ptr %50, align 8
  store ptr null, ptr %51, align 8
  %52 = getelementptr inbounds nuw i8, ptr %0, i64 56
  %53 = load ptr, ptr %52, align 8
  store i32 0, ptr %53, align 4
  %54 = getelementptr inbounds nuw i8, ptr %0, i64 96
  %55 = load ptr, ptr %54, align 8
  %.not = icmp eq ptr %55, null
  br i1 %.not, label %57, label %56

56:                                               ; preds = %._crit_edge
  tail call void %55()
  br label %57

57:                                               ; preds = %56, %._crit_edge
  ret void
}